target datalayout = "e-m:e-p270:32:32-p271:32:32-p272:64:64-i64:64-i128:128-f80:128-n8:16:32:64-S128"
target triple = "x86_64-pc-linux-gnu"

; Function Attrs: nounwind uwtable
define internal i32 @ftp_pl_get_permission(ptr noundef %0) #0 {
  %2 = alloca ptr, align 8
  %3 = alloca i32, align 4
  store ptr %0, ptr %2, align 8, !tbaa !33
  call void @llvm.lifetime.start.p0(i64 4, ptr %3) #5
  store i32 0, ptr %3, align 4, !tbaa !118
  %4 = load ptr, ptr %2, align 8, !tbaa !33
  %5 = getelementptr inbounds i8, ptr %4, i64 0
  %6 = load i8, ptr %5, align 1, !tbaa !105
  %7 = sext i8 %6 to i32
  %8 = icmp eq i32 %7, 114
  br i1 %8, label %9, label %12

9:                                                ; preds = %1
  %10 = load i32, ptr %3, align 4, !tbaa !118
  %11 = or i32 %10, 256
  store i32 %11, ptr %3, align 4, !tbaa !118
  br label %22

12:                                               ; preds = %1
  %13 = load ptr, ptr %2, align 8, !tbaa !33
  %14 = getelementptr inbounds i8, ptr %13, i64 0
  %15 = load i8, ptr %14, align 1, !tbaa !105
  %16 = sext i8 %15 to i32
  %17 = icmp ne i32 %16, 45
  br i1 %17, label %18, label %21

18:                                               ; preds = %12
  %19 = load i32, ptr %3, align 4, !tbaa !118
  %20 = or i32 %19, 16777216
  store i32 %20, ptr %3, align 4, !tbaa !118
  br label %21

21:                                               ; preds = %18, %12
  br label %22

22:                                               ; preds = %21, %9
  %23 = load ptr, ptr %2, align 8, !tbaa !33
  %24 = getelementptr inbounds i8, ptr %23, i64 1
  %25 = load i8, ptr %24, align 1, !tbaa !105
  %26 = sext i8 %25 to i32
  %27 = icmp eq i32 %26, 119
  br i1 %27, label %28, label %31

28:                                               ; preds = %22
  %29 = load i32, ptr %3, align 4, !tbaa !118
  %30 = or i32 %29, 128
  store i32 %30, ptr %3, align 4, !tbaa !118
  br label %41

31:                                               ; preds = %22
  %32 = load ptr, ptr %2, align 8, !tbaa !33
  %33 = getelementptr inbounds i8, ptr %32, i64 1
  %34 = load i8, ptr %33, align 1, !tbaa !105
  %35 = sext i8 %34 to i32
  %36 = icmp ne i32 %35, 45
  br i1 %36, label %37, label %40

37:                                               ; preds = %31
  %38 = load i32, ptr %3, align 4, !tbaa !118
  %39 = or i32 %38, 16777216
  store i32 %39, ptr %3, align 4, !tbaa !118
  br label %40

40:                                               ; preds = %37, %31
  br label %41

41:                                               ; preds = %40, %28
  %42 = load ptr, ptr %2, align 8, !tbaa !33
  %43 = getelementptr inbounds i8, ptr %42, i64 2
  %44 = load i8, ptr %43, align 1, !tbaa !105
  %45 = sext i8 %44 to i32
  %46 = icmp eq i32 %45, 120
  br i1 %46, label %47, label %50

47:                                               ; preds = %41
  %48 = load i32, ptr %3, align 4, !tbaa !118
  %49 = or i32 %48, 64
  store i32 %49, ptr %3, align 4, !tbaa !118
  br label %82

50:                                               ; preds = %41
  %51 = load ptr, ptr %2, align 8, !tbaa !33
  %52 = getelementptr inbounds i8, ptr %51, i64 2
  %53 = load i8, ptr %52, align 1, !tbaa !105
  %54 = sext i8 %53 to i32
  %55 = icmp eq i32 %54, 115
  br i1 %55, label %56, label %61

56:                                               ; preds = %50
  %57 = load i32, ptr %3, align 4, !tbaa !118
  %58 = or i32 %57, 64
  store i32 %58, ptr %3, align 4, !tbaa !118
  %59 = load i32, ptr %3, align 4, !tbaa !118
  %60 = or i32 %59, 2048
  store i32 %60, ptr %3, align 4, !tbaa !118
  br label %81

61:                                               ; preds = %50
  %62 = load ptr, ptr %2, align 8, !tbaa !33
  %63 = getelementptr inbounds i8, ptr %62, i64 2
  %64 = load i8, ptr %63, align 1, !tbaa !105
  %65 = sext i8 %64 to i32
  %66 = icmp eq i32 %65, 83
  br i1 %66, label %67, label %70

67:                                               ; preds = %61
  %68 = load i32, ptr %3, align 4, !tbaa !118
  %69 = or i32 %68, 2048
  store i32 %69, ptr %3, align 4, !tbaa !118
  br label %80

70:                                               ; preds = %61
  %71 = load ptr, ptr %2, align 8, !tbaa !33
  %72 = getelementptr inbounds i8, ptr %71, i64 2
  %73 = load i8, ptr %72, align 1, !tbaa !105
  %74 = sext i8 %73 to i32
  %75 = icmp ne i32 %74, 45
  br i1 %75, label %76, label %79

76:                                               ; preds = %70
  %77 = load i32, ptr %3, align 4, !tbaa !118
  %78 = or i32 %77, 16777216
  store i32 %78, ptr %3, align 4, !tbaa !118
  br label %79

79:                                               ; preds = %76, %70
  br label %80

80:                                               ; preds = %79, %67
  br label %81

81:                                               ; preds = %80, %56
  br label %82

82:                                               ; preds = %81, %47
  %83 = load ptr, ptr %2, align 8, !tbaa !33
  %84 = getelementptr inbounds i8, ptr %83, i64 3
  %85 = load i8, ptr %84, align 1, !tbaa !105
  %86 = sext i8 %85 to i32
  %87 = icmp eq i32 %86, 114
  br i1 %87, label %88, label %91

88:                                               ; preds = %82
  %89 = load i32, ptr %3, align 4, !tbaa !118
  %90 = or i32 %89, 32
  store i32 %90, ptr %3, align 4, !tbaa !118
  br label %101

91:                                               ; preds = %82
  %92 = load ptr, ptr %2, align 8, !tbaa !33
  %93 = getelementptr inbounds i8, ptr %92, i64 3
  %94 = load i8, ptr %93, align 1, !tbaa !105
  %95 = sext i8 %94 to i32
  %96 = icmp ne i32 %95, 45
  br i1 %96, label %97, label %100

97:                                               ; preds = %91
  %98 = load i32, ptr %3, align 4, !tbaa !118
  %99 = or i32 %98, 16777216
  store i32 %99, ptr %3, align 4, !tbaa !118
  br label %100

100:                                              ; preds = %97, %91
  br label %101

101:                                              ; preds = %100, %88
  %102 = load ptr, ptr %2, align 8, !tbaa !33
  %103 = getelementptr inbounds i8, ptr %102, i64 4
  %104 = load i8, ptr %103, align 1, !tbaa !105
  %105 = sext i8 %104 to i32
  %106 = icmp eq i32 %105, 119
  br i1 %106, label %107, label %110

107:                                              ; preds = %101
  %108 = load i32, ptr %3, align 4, !tbaa !118
  %109 = or i32 %108, 16
  store i32 %109, ptr %3, align 4, !tbaa !118
  br label %120

110:                                              ; preds = %101
  %111 = load ptr, ptr %2, align 8, !tbaa !33
  %112 = getelementptr inbounds i8, ptr %111, i64 4
  %113 = load i8, ptr %112, align 1, !tbaa !105
  %114 = sext i8 %113 to i32
  %115 = icmp ne i32 %114, 45
  br i1 %115, label %116, label %119

116:                                              ; preds = %110
  %117 = load i32, ptr %3, align 4, !tbaa !118
  %118 = or i32 %117, 16777216
  store i32 %118, ptr %3, align 4, !tbaa !118
  br label %119

119:                                              ; preds = %116, %110
  br label %120

120:                                              ; preds = %119, %107
  %121 = load ptr, ptr %2, align 8, !tbaa !33
  %122 = getelementptr inbounds i8, ptr %121, i64 5
  %123 = load i8, ptr %122, align 1, !tbaa !105
  %124 = sext i8 %123 to i32
  %125 = icmp eq i32 %124, 120
  br i1 %125, label %126, label %129

126:                                              ; preds = %120
  %127 = load i32, ptr %3, align 4, !tbaa !118
  %128 = or i32 %127, 8
  store i32 %128, ptr %3, align 4, !tbaa !118
  br label %161

129:                                              ; preds = %120
  %130 = load ptr, ptr %2, align 8, !tbaa !33
  %131 = getelementptr inbounds i8, ptr %130, i64 5
  %132 = load i8, ptr %131, align 1, !tbaa !105
  %133 = sext i8 %132 to i32
  %134 = icmp eq i32 %133, 115
  br i1 %134, label %135, label %140

135:                                              ; preds = %129
  %136 = load i32, ptr %3, align 4, !tbaa !118
  %137 = or i32 %136, 8
  store i32 %137, ptr %3, align 4, !tbaa !118
  %138 = load i32, ptr %3, align 4, !tbaa !118
  %139 = or i32 %138, 1024
  store i32 %139, ptr %3, align 4, !tbaa !118
  br label %160

140:                                              ; preds = %129
  %141 = load ptr, ptr %2, align 8, !tbaa !33
  %142 = getelementptr inbounds i8, ptr %141, i64 5
  %143 = load i8, ptr %142, align 1, !tbaa !105
  %144 = sext i8 %143 to i32
  %145 = icmp eq i32 %144, 83
  br i1 %145, label %146, label %149

146:                                              ; preds = %140
  %147 = load i32, ptr %3, align 4, !tbaa !118
  %148 = or i32 %147, 1024
  store i32 %148, ptr %3, align 4, !tbaa !118
  br label %159

149:                                              ; preds = %140
  %150 = load ptr, ptr %2, align 8, !tbaa !33
  %151 = getelementptr inbounds i8, ptr %150, i64 5
  %152 = load i8, ptr %151, align 1, !tbaa !105
  %153 = sext i8 %152 to i32
  %154 = icmp ne i32 %153, 45
  br i1 %154, label %155, label %158

155:                                              ; preds = %149
  %156 = load i32, ptr %3, align 4, !tbaa !118
  %157 = or i32 %156, 16777216
  store i32 %157, ptr %3, align 4, !tbaa !118
  br label %158

158:                                              ; preds = %155, %149
  br label %159

159:                                              ; preds = %158, %146
  br label %160

160:                                              ; preds = %159, %135
  br label %161

161:                                              ; preds = %160, %126
  %162 = load ptr, ptr %2, align 8, !tbaa !33
  %163 = getelementptr inbounds i8, ptr %162, i64 6
  %164 = load i8, ptr %163, align 1, !tbaa !105
  %165 = sext i8 %164 to i32
  %166 = icmp eq i32 %165, 114
  br i1 %166, label %167, label %170

167:                                              ; preds = %161
  %168 = load i32, ptr %3, align 4, !tbaa !118
  %169 = or i32 %168, 4
  store i32 %169, ptr %3, align 4, !tbaa !118
  br label %180

170:                                              ; preds = %161
  %171 = load ptr, ptr %2, align 8, !tbaa !33
  %172 = getelementptr inbounds i8, ptr %171, i64 6
  %173 = load i8, ptr %172, align 1, !tbaa !105
  %174 = sext i8 %173 to i32
  %175 = icmp ne i32 %174, 45
  br i1 %175, label %176, label %179

176:                                              ; preds = %170
  %177 = load i32, ptr %3, align 4, !tbaa !118
  %178 = or i32 %177, 16777216
  store i32 %178, ptr %3, align 4, !tbaa !118
  br label %179

179:                                              ; preds = %176, %170
  br label %180

180:                                              ; preds = %179, %167
  %181 = load ptr, ptr %2, align 8, !tbaa !33
  %182 = getelementptr inbounds i8, ptr %181, i64 7
  %183 = load i8, ptr %182, align 1, !tbaa !105
  %184 = sext i8 %183 to i32
  %185 = icmp eq i32 %184, 119
  br i1 %185, label %186, label %189

186:                                              ; preds = %180
  %187 = load i32, ptr %3, align 4, !tbaa !118
  %188 = or i32 %187, 2
  store i32 %188, ptr %3, align 4, !tbaa !118
  br label %199

189:                                              ; preds = %180
  %190 = load ptr, ptr %2, align 8, !tbaa !33
  %191 = getelementptr inbounds i8, ptr %190, i64 7
  %192 = load i8, ptr %191, align 1, !tbaa !105
  %193 = sext i8 %192 to i32
  %194 = icmp ne i32 %193, 45
  br i1 %194, label %195, label %198

195:                                              ; preds = %189
  %196 = load i32, ptr %3, align 4, !tbaa !118
  %197 = or i32 %196, 16777216
  store i32 %197, ptr %3, align 4, !tbaa !118
  br label %198

198:                                              ; preds = %195, %189
  br label %199

199:                                              ; preds = %198, %186
  %200 = load ptr, ptr %2, align 8, !tbaa !33
  %201 = getelementptr inbounds i8, ptr %200, i64 8
  %202 = load i8, ptr %201, align 1, !tbaa !105
  %203 = sext i8 %202 to i32
  %204 = icmp eq i32 %203, 120
  br i1 %204, label %205, label %208

205:                                              ; preds = %199
  %206 = load i32, ptr %3, align 4, !tbaa !118
  %207 = or i32 %206, 1
  store i32 %207, ptr %3, align 4, !tbaa !118
  br label %240

208:                                              ; preds = %199
  %209 = load ptr, ptr %2, align 8, !tbaa !33
  %210 = getelementptr inbounds i8, ptr %209, i64 8
  %211 = load i8, ptr %210, align 1, !tbaa !105
  %212 = sext i8 %211 to i32
  %213 = icmp eq i32 %212, 116
  br i1 %213, label %214, label %219

214:                                              ; preds = %208
  %215 = load i32, ptr %3, align 4, !tbaa !118
  %216 = or i32 %215, 1
  store i32 %216, ptr %3, align 4, !tbaa !118
  %217 = load i32, ptr %3, align 4, !tbaa !118
  %218 = or i32 %217, 512
  store i32 %218, ptr %3, align 4, !tbaa !118
  br label %239

219:                                              ; preds = %208
  %220 = load ptr, ptr %2, align 8, !tbaa !33
  %221 = getelementptr inbounds i8, ptr %220, i64 8
  %222 = load i8, ptr %221, align 1, !tbaa !105
  %223 = sext i8 %222 to i32
  %224 = icmp eq i32 %223, 84
  br i1 %224, label %225, label %228

225:                                              ; preds = %219
  %226 = load i32, ptr %3, align 4, !tbaa !118
  %227 = or i32 %226, 512
  store i32 %227, ptr %3, align 4, !tbaa !118
  br label %238

228:                                              ; preds = %219
  %229 = load ptr, ptr %2, align 8, !tbaa !33
  %230 = getelementptr inbounds i8, ptr %229, i64 8
  %231 = load i8, ptr %230, align 1, !tbaa !105
  %232 = sext i8 %231 to i32
  %233 = icmp ne i32 %232, 45
  br i1 %233, label %234, label %237

234:                                              ; preds = %228
  %235 = load i32, ptr %3, align 4, !tbaa !118
  %236 = or i32 %235, 16777216
  store i32 %236, ptr %3, align 4, !tbaa !118
  br label %237

237:                                              ; preds = %234, %228
  br label %238

238:                                              ; preds = %237, %225
  br label %239

239:                                              ; preds = %238, %214
  br label %240

240:                                              ; preds = %239, %205
  %241 = load i32, ptr %3, align 4, !tbaa !118
  call void @llvm.lifetime.end.p0(i64 4, ptr %3) #5
  ret i32 %241
}